target datalayout = "e-m:e-p270:32:32-p271:32:32-p272:64:64-i64:64-i128:128-f80:128-n8:16:32:64-S128"
target triple = "x86_64-unknown-linux-gnu"

%"class.std::__shared_count" = type { ptr }
%"class.rocksdb::DBWithTTLImpl" = type <{ %"class.rocksdb::DBWithTTL", i8, [7 x i8] }>
%"class.rocksdb::DBWithTTL" = type { %"class.rocksdb::StackableDB" }
%"class.rocksdb::StackableDB" = type { %"class.rocksdb::DB", ptr, %"class.std::shared_ptr.170" }
%"class.rocksdb::DB" = type { ptr }
%"class.std::shared_ptr.170" = type { %"class.std::__shared_ptr.171" }
%"class.std::__shared_ptr.171" = type { ptr, %"class.std::__shared_count" }

@_ZTVN7rocksdb2DBE = external unnamed_addr constant { [152 x ptr] }, align 8

; Function Attrs: mustprogress nounwind uwtable
define linkonce_odr void @_ZNSt14__shared_countILN9__gnu_cxx12_Lock_policyE2EEC2Ev(ptr noundef nonnull align 8 dereferenceable(8) %this) unnamed_addr #1 comdat align 2 {
entry:
  %this.addr = alloca ptr, align 8
  store ptr %this, ptr %this.addr, align 8
  %this1 = load ptr, ptr %this.addr, align 8
  %_M_pi = getelementptr inbounds %"class.std::__shared_count", ptr %this1, i32 0, i32 0
  store ptr null, ptr %_M_pi, align 8
  ret void
}

; Function Attrs: mustprogress nounwind uwtable
define linkonce_odr void @_ZNSt12__shared_ptrIN7rocksdb2DBELN9__gnu_cxx12_Lock_policyE2EEC2Ev(ptr noundef nonnull align 8 dereferenceable(16) %this) unnamed_addr #1 comdat align 2 {
entry:
  %this.addr = alloca ptr, align 8
  store ptr %this, ptr %this.addr, align 8
  %this1 = load ptr, ptr %this.addr, align 8
  %_M_ptr = getelementptr inbounds %"class.std::__shared_ptr.171", ptr %this1, i32 0, i32 0
  store ptr null, ptr %_M_ptr, align 8
  %_M_refcount = getelementptr inbounds %"class.std::__shared_ptr.171", ptr %this1, i32 0, i32 1
  call void @_ZNSt14__shared_countILN9__gnu_cxx12_Lock_policyE2EEC2Ev(ptr noundef nonnull align 8 dereferenceable(8) %_M_refcount) #3
  ret void
}

; Function Attrs: mustprogress nounwind uwtable
define linkonce_odr void @_ZNSt10shared_ptrIN7rocksdb2DBEEC2Ev(ptr noundef nonnull align 8 dereferenceable(16) %this) unnamed_addr #1 comdat align 2 {
entry:
  %this.addr = alloca ptr, align 8
  store ptr %this, ptr %this.addr, align 8
  %this1 = load ptr, ptr %this.addr, align 8
  call void @_ZNSt12__shared_ptrIN7rocksdb2DBELN9__gnu_cxx12_Lock_policyE2EEC2Ev(ptr noundef nonnull align 8 dereferenceable(16) %this1) #3
  ret void
}

; Function Attrs: mustprogress nounwind uwtable
define linkonce_odr void @_ZN7rocksdb2DBC2Ev(ptr noundef nonnull align 8 dereferenceable(8) %this) unnamed_addr #1 comdat align 2 {
entry:
  %this.addr = alloca ptr, align 8
  store ptr %this, ptr %this.addr, align 8
  %this1 = load ptr, ptr %this.addr, align 8
  store ptr getelementptr inbounds ({ [152 x ptr] }, ptr @_ZTVN7rocksdb2DBE, i32 0, i32 0, i32 2), ptr %this1, align 8
  ret void
}

; Function Attrs: mustprogress uwtable
define linkonce_odr void @_ZN7rocksdb11StackableDBC2EPNS_2DBE(ptr noundef nonnull align 8 dereferenceable(32) %this, ptr noundef %db) unnamed_addr #0 comdat align 2 {
entry:
  %this.addr = alloca ptr, align 8
  %db.addr = alloca ptr, align 8
  store ptr %this, ptr %this.addr, align 8
  store ptr %db, ptr %db.addr, align 8
  %this1 = load ptr, ptr %this.addr, align 8
  call void @_ZN7rocksdb2DBC2Ev(ptr noundef nonnull align 8 dereferenceable(8) %this1)
  store ptr getelementptr inbounds ({ [153 x ptr] }, ptr @_ZTVN7rocksdb11StackableDBE, i32 0, i32 0, i32 2), ptr %this1, align 8
  %db_ = getelementptr inbounds %"class.rocksdb::StackableDB", ptr %this1, i32 0, i32 1
  %0 = load ptr, ptr %db.addr, align 8
  store ptr %0, ptr %db_, align 8
  %shared_db_ptr_ = getelementptr inbounds %"class.rocksdb::StackableDB", ptr %this1, i32 0, i32 2
  call void @_ZNSt10shared_ptrIN7rocksdb2DBEEC2Ev(ptr noundef nonnull align 8 dereferenceable(16) %shared_db_ptr_) #3
  ret void
}

; Function Attrs: mustprogress uwtable
define linkonce_odr void @_ZN7rocksdb9DBWithTTLC2EPNS_2DBE(ptr noundef nonnull align 8 dereferenceable(32) %this, ptr noundef %db) unnamed_addr #0 comdat align 2 {
entry:
  %this.addr = alloca ptr, align 8
  %db.addr = alloca ptr, align 8
  store ptr %this, ptr %this.addr, align 8
  store ptr %db, ptr %db.addr, align 8
  %this1 = load ptr, ptr %this.addr, align 8
  %0 = load ptr, ptr %db.addr, align 8
  call void @_ZN7rocksdb11StackableDBC2EPNS_2DBE(ptr noundef nonnull align 8 dereferenceable(32) %this1, ptr noundef %0)
  store ptr getelementptr inbounds ({ [156 x ptr] }, ptr @_ZTVN7rocksdb9DBWithTTLE, i32 0, i32 0, i32 2), ptr %this1, align 8
  ret void
}

; Function Attrs: mustprogress uwtable
define void @_ZN7rocksdb13DBWithTTLImplC2EPNS_2DBE(ptr noundef nonnull align 8 dereferenceable(33) %this, ptr noundef %db) unnamed_addr #0 align 2 {
entry:
  %this.addr = alloca ptr, align 8
  %db.addr = alloca ptr, align 8
  store ptr %this, ptr %this.addr, align 8
  store ptr %db, ptr %db.addr, align 8
  %this1 = load ptr, ptr %this.addr, align 8
  %0 = load ptr, ptr %db.addr, align 8
  call void @_ZN7rocksdb9DBWithTTLC2EPNS_2DBE(ptr noundef nonnull align 8 dereferenceable(32) %this1, ptr noundef %0)
  store ptr getelementptr inbounds ({ [156 x ptr] }, ptr @_ZTVN7rocksdb13DBWithTTLImplE, i32 0, i32 0, i32 2), ptr %this1, align 8
  %closed_ = getelementptr inbounds %"class.rocksdb::DBWithTTLImpl", ptr %this1, i32 0, i32 1
  store i8 0, ptr %closed_, align 8
  ret void
}