; Function Attrs: mustprogress nofree norecurse nosync nounwind willreturn memory(argmem: write) uwtable
define void @_ZN7rocksdb13DBWithTTLImplC2EPNS_2DBE(ptr nocapture noundef nonnull writeonly align 8 dereferenceable(33) %this, ptr noundef %db) unnamed_addr #8 align 2 {
entry:
  %db_.i.i = getelementptr inbounds i8, ptr %this, i64 8
  store ptr %db, ptr %db_.i.i, align 8
  %shared_db_ptr_.i.i = getelementptr inbounds i8, ptr %this, i64 16
  tail call void @llvm.memset.p0.i64(ptr noundef nonnull align 8 dereferenceable(16) %shared_db_ptr_.i.i, i8 0, i64 16, i1 false)
  store ptr getelementptr inbounds ({ [156 x ptr] }, ptr @_ZTVN7rocksdb13DBWithTTLImplE, i64 0, i32 0, i64 2), ptr %this, align 8
  %closed_ = getelementptr inbounds i8, ptr %this, i64 32
  store i8 0, ptr %closed_, align 8
  ret void
}